; Function Attrs: mustprogress uwtable
define hidden noundef zeroext i1 @_ZN7datalog15rule_properties20evaluates_to_numeralEP4exprR8rational(ptr noundef nonnull align 8 dereferenceable(258) %0, ptr noundef %1, ptr noundef nonnull align 8 dereferenceable(32) %2) local_unnamed_addr #3 align 2 personality ptr @__gxx_personality_v0 {
  %4 = alloca i8, align 1
  %5 = alloca i8, align 1
  %6 = alloca %class.th_rewriter, align 8
  %7 = alloca %class.params_ref, align 8
  %8 = alloca %class.obj_ref.70, align 8
  %9 = getelementptr inbounds nuw i8, ptr %0, i64 88
  call void @llvm.lifetime.start.p0(i64 1, ptr nonnull %5) #19
  %10 = call noundef zeroext i1 @_ZNK10arith_util10is_numeralEPK4exprR8rationalRb(ptr noundef nonnull align 8 dereferenceable(16) %9, ptr noundef %1, ptr noundef nonnull align 8 dereferenceable(32) %2, ptr noundef nonnull align 1 dereferenceable(1) %5)
  call void @llvm.lifetime.end.p0(i64 1, ptr nonnull %5) #19
  br i1 %10, label %39, label %11

11:                                               ; preds = %3
  call void @llvm.lifetime.start.p0(i64 16, ptr nonnull %6) #19
  %12 = load ptr, ptr %0, align 8, !tbaa !168
  call void @llvm.lifetime.start.p0(i64 8, ptr nonnull %7) #19
  store ptr null, ptr %7, align 8, !tbaa !311
  invoke void @_ZN11th_rewriterC1ER11ast_managerRK10params_ref(ptr noundef nonnull align 8 dereferenceable(16) %6, ptr noundef nonnull align 8 dereferenceable(976) %12, ptr noundef nonnull align 8 dereferenceable(8) %7)
          to label %13 unwind label %34

13:                                               ; preds = %11
  call void @_ZN10params_refD1Ev(ptr noundef nonnull align 8 dereferenceable(8) %7) #19
  call void @llvm.lifetime.end.p0(i64 8, ptr nonnull %7) #19
  call void @llvm.lifetime.start.p0(i64 16, ptr nonnull %8) #19
  %14 = load ptr, ptr %0, align 8, !tbaa !168
  store ptr %1, ptr %8, align 8, !tbaa !274
  %15 = getelementptr inbounds nuw i8, ptr %8, i64 8
  store ptr %14, ptr %15, align 8, !tbaa !3
  %.not.i.i = icmp eq ptr %1, null
  br i1 %.not.i.i, label %_ZN7obj_refI4expr11ast_managerEC2EPS0_RS1_.exit, label %_ZN11ast_manager7inc_refEP3ast.exit.i.i

_ZN11ast_manager7inc_refEP3ast.exit.i.i:          ; preds = %13
  %16 = getelementptr inbounds nuw i8, ptr %1, i64 8
  %17 = load i32, ptr %16, align 4, !tbaa !248
  %18 = add i32 %17, 1
  store i32 %18, ptr %16, align 4, !tbaa !248
  br label %_ZN7obj_refI4expr11ast_managerEC2EPS0_RS1_.exit

_ZN7obj_refI4expr11ast_managerEC2EPS0_RS1_.exit:  ; preds = %_ZN11ast_manager7inc_refEP3ast.exit.i.i, %13
  invoke void @_ZN11th_rewriterclER7obj_refI4expr11ast_managerE(ptr noundef nonnull align 8 dereferenceable(16) %6, ptr noundef nonnull align 8 dereferenceable(16) %8)
          to label %19 unwind label %36

19:                                               ; preds = %_ZN7obj_refI4expr11ast_managerEC2EPS0_RS1_.exit
  %20 = load ptr, ptr %8, align 8, !tbaa !274
  call void @llvm.lifetime.start.p0(i64 1, ptr nonnull %4) #19
  %21 = invoke noundef zeroext i1 @_ZNK10arith_util10is_numeralEPK4exprR8rationalRb(ptr noundef nonnull align 8 dereferenceable(16) %9, ptr noundef %20, ptr noundef nonnull align 8 dereferenceable(32) %2, ptr noundef nonnull align 1 dereferenceable(1) %4)
          to label %22 unwind label %36

22:                                               ; preds = %19
  call void @llvm.lifetime.end.p0(i64 1, ptr nonnull %4) #19
  %23 = load ptr, ptr %8, align 8, !tbaa !274
  %.not.i.i12 = icmp eq ptr %23, null
  br i1 %.not.i.i12, label %_ZN7obj_refI4expr11ast_managerED2Ev.exit, label %24

24:                                               ; preds = %22
  %25 = load ptr, ptr %15, align 8, !tbaa !276
  %26 = getelementptr inbounds nuw i8, ptr %23, i64 8
  %27 = load i32, ptr %26, align 4, !tbaa !248
  %28 = add i32 %27, -1
  store i32 %28, ptr %26, align 4, !tbaa !248
  %29 = icmp eq i32 %28, 0
  br i1 %29, label %30, label %_ZN7obj_refI4expr11ast_managerED2Ev.exit

30:                                               ; preds = %24
  invoke void @_ZN11ast_manager11delete_nodeEP3ast(ptr noundef nonnull align 8 dereferenceable(976) %25, ptr noundef nonnull %23)
          to label %_ZN7obj_refI4expr11ast_managerED2Ev.exit unwind label %31

31:                                               ; preds = %30
  %32 = landingpad { ptr, i32 }
          catch ptr null
  %33 = extractvalue { ptr, i32 } %32, 0
  call void @__clang_call_terminate(ptr %33) #20
  unreachable

_ZN7obj_refI4expr11ast_managerED2Ev.exit:         ; preds = %22, %24, %30
  call void @llvm.lifetime.end.p0(i64 16, ptr nonnull %8) #19
  call void @_ZN11th_rewriterD1Ev(ptr noundef nonnull align 8 dereferenceable(16) %6) #19
  call void @llvm.lifetime.end.p0(i64 16, ptr nonnull %6) #19
  br label %39

34:                                               ; preds = %11
  %35 = landingpad { ptr, i32 }
          cleanup
  call void @_ZN10params_refD1Ev(ptr noundef nonnull align 8 dereferenceable(8) %7) #19
  call void @llvm.lifetime.end.p0(i64 8, ptr nonnull %7) #19
  br label %38

36:                                               ; preds = %19, %_ZN7obj_refI4expr11ast_managerEC2EPS0_RS1_.exit
  %37 = landingpad { ptr, i32 }
          cleanup
  call void @_ZN7obj_refI4expr11ast_managerED2Ev(ptr noundef nonnull align 8 dereferenceable(16) %8) #19
  call void @llvm.lifetime.end.p0(i64 16, ptr nonnull %8) #19
  call void @_ZN11th_rewriterD1Ev(ptr noundef nonnull align 8 dereferenceable(16) %6) #19
  br label %38

38:                                               ; preds = %36, %34
  %.pn.pn = phi { ptr, i32 } [ %37, %36 ], [ %35, %34 ]
  call void @llvm.lifetime.end.p0(i64 16, ptr nonnull %6) #19
  resume { ptr, i32 } %.pn.pn

39:                                               ; preds = %3, %_ZN7obj_refI4expr11ast_managerED2Ev.exit
  %.09 = phi i1 [ %21, %_ZN7obj_refI4expr11ast_managerED2Ev.exit ], [ true, %3 ]
  ret i1 %.09
}